target datalayout = "e-m:e-p270:32:32-p271:32:32-p272:64:64-i64:64-i128:128-f80:128-n8:16:32:64-S128"
target triple = "x86_64-pc-linux-gnu"

%struct.Gia_Man_t_ = type { ptr, ptr, i32, i32, i32, i32, ptr, ptr, i32, i32, i32, ptr, ptr, %struct.Vec_Int_t_, %struct.Vec_Int_t_, i32, i32, i32, %struct.Vec_Int_t_, ptr, ptr, ptr, i32, i32, i32, i32, ptr, ptr, ptr, ptr, ptr, i32, i32, ptr, i32, ptr, ptr, ptr, ptr, ptr, ptr, ptr, ptr, ptr, ptr, ptr, ptr, ptr, ptr, ptr, ptr, ptr, ptr, %struct.Vec_Int_t_, %struct.Vec_Int_t_, ptr, ptr, ptr, ptr, ptr, ptr, ptr, ptr, ptr, ptr, ptr, ptr, ptr, ptr, ptr, ptr, ptr, ptr, ptr, ptr, ptr, i32, float, float, ptr, ptr, i32, ptr, ptr, ptr, ptr, ptr, ptr, ptr, ptr, ptr, ptr, ptr, ptr, ptr, ptr, ptr, i64, i64, ptr, ptr, i32, i32, i32, i32, i32, i32, i32, i32, i32, i32, i32, i32, ptr, ptr, ptr, ptr, ptr, ptr, ptr, ptr, i32, i32, i32, ptr, i32, i32, ptr, ptr, ptr, ptr, ptr, ptr, i32, i32, ptr, %struct.Vec_Int_t_, %struct.Vec_Int_t_, %struct.Vec_Int_t_, ptr, ptr, ptr, i32, i32, i32, i32, ptr, ptr, ptr, ptr, ptr }
%struct.Vec_Int_t_ = type { i32, i32, ptr }
%struct.Gia_Obj_t_ = type <{ i64, i32 }>

; Function Attrs: inlinehint nounwind uwtable
define internal i32 @Gia_ObjId(ptr noundef %0, ptr noundef %1) #3 {
  %3 = alloca ptr, align 8
  %4 = alloca ptr, align 8
  store ptr %0, ptr %3, align 8, !tbaa !3
  store ptr %1, ptr %4, align 8, !tbaa !8
  %5 = load ptr, ptr %4, align 8, !tbaa !8
  %6 = load ptr, ptr %3, align 8, !tbaa !3
  %7 = getelementptr inbounds nuw %struct.Gia_Man_t_, ptr %6, i32 0, i32 6
  %8 = load ptr, ptr %7, align 8, !tbaa !14
  %9 = ptrtoint ptr %5 to i64
  %10 = ptrtoint ptr %8 to i64
  %11 = sub i64 %9, %10
  %12 = sdiv exact i64 %11, 12
  %13 = trunc i64 %12 to i32
  ret i32 %13
}

; Function Attrs: inlinehint nounwind uwtable
define internal ptr @Gia_ObjFanin1(ptr noundef %0) #3 {
  %2 = alloca ptr, align 8
  store ptr %0, ptr %2, align 8, !tbaa !8
  %3 = load ptr, ptr %2, align 8, !tbaa !8
  %4 = load ptr, ptr %2, align 8, !tbaa !8
  %5 = load i64, ptr %4, align 4
  %6 = lshr i64 %5, 32
  %7 = and i64 %6, 536870911
  %8 = trunc i64 %7 to i32
  %9 = sext i32 %8 to i64
  %10 = sub i64 0, %9
  %11 = getelementptr inbounds %struct.Gia_Obj_t_, ptr %3, i64 %10
  ret ptr %11
}

; Function Attrs: inlinehint nounwind uwtable
define internal ptr @Gia_ObjFanin0(ptr noundef %0) #3 {
  %2 = alloca ptr, align 8
  store ptr %0, ptr %2, align 8, !tbaa !8
  %3 = load ptr, ptr %2, align 8, !tbaa !8
  %4 = load ptr, ptr %2, align 8, !tbaa !8
  %5 = load i64, ptr %4, align 4
  %6 = and i64 %5, 536870911
  %7 = trunc i64 %6 to i32
  %8 = sext i32 %7 to i64
  %9 = sub i64 0, %8
  %10 = getelementptr inbounds %struct.Gia_Obj_t_, ptr %3, i64 %9
  ret ptr %10
}

; Function Attrs: inlinehint nounwind uwtable
define internal i32 @Gia_ObjFaninC1(ptr noundef %0) #3 {
  %2 = alloca ptr, align 8
  store ptr %0, ptr %2, align 8, !tbaa !8
  %3 = load ptr, ptr %2, align 8, !tbaa !8
  %4 = load i64, ptr %3, align 4
  %5 = lshr i64 %4, 61
  %6 = and i64 %5, 1
  %7 = trunc i64 %6 to i32
  ret i32 %7
}

; Function Attrs: inlinehint nounwind uwtable
define internal i32 @Gia_ObjFaninC0(ptr noundef %0) #3 {
  %2 = alloca ptr, align 8
  store ptr %0, ptr %2, align 8, !tbaa !8
  %3 = load ptr, ptr %2, align 8, !tbaa !8
  %4 = load i64, ptr %3, align 4
  %5 = lshr i64 %4, 29
  %6 = and i64 %5, 1
  %7 = trunc i64 %6 to i32
  ret i32 %7
}

; Function Attrs: inlinehint nounwind uwtable
define internal i32 @Gia_ObjIsAnd(ptr noundef %0) #3 {
  %2 = alloca ptr, align 8
  store ptr %0, ptr %2, align 8, !tbaa !8
  %3 = load ptr, ptr %2, align 8, !tbaa !8
  %4 = load i64, ptr %3, align 4
  %5 = lshr i64 %4, 31
  %6 = and i64 %5, 1
  %7 = trunc i64 %6 to i32
  %8 = icmp ne i32 %7, 0
  br i1 %8, label %15, label %9

9:                                                ; preds = %1
  %10 = load ptr, ptr %2, align 8, !tbaa !8
  %11 = load i64, ptr %10, align 4
  %12 = and i64 %11, 536870911
  %13 = trunc i64 %12 to i32
  %14 = icmp ne i32 %13, 536870911
  br label %15

15:                                               ; preds = %9, %1
  %16 = phi i1 [ false, %1 ], [ %14, %9 ]
  %17 = zext i1 %16 to i32
  ret i32 %17
}

; Function Attrs: nounwind uwtable
define i32 @Acec_DetectBoothXorFanin(ptr noundef %0, ptr noundef %1, ptr noundef %2) #0 {
  %4 = alloca i32, align 4
  %5 = alloca ptr, align 8
  %6 = alloca ptr, align 8
  %7 = alloca ptr, align 8
  %8 = alloca ptr, align 8
  %9 = alloca ptr, align 8
  %10 = alloca i32, align 4
  store ptr %0, ptr %5, align 8, !tbaa !3
  store ptr %1, ptr %6, align 8, !tbaa !8
  store ptr %2, ptr %7, align 8, !tbaa !10
  call void @llvm.lifetime.start.p0(i64 8, ptr %8) #8
  call void @llvm.lifetime.start.p0(i64 8, ptr %9) #8
  %11 = load ptr, ptr %6, align 8, !tbaa !8
  %12 = call i32 @Gia_ObjIsAnd(ptr noundef %11)
  %13 = icmp ne i32 %12, 0
  br i1 %13, label %15, label %14

14:                                               ; preds = %3
  store i32 0, ptr %4, align 4
  store i32 1, ptr %10, align 4
  br label %126

15:                                               ; preds = %3
  %16 = load ptr, ptr %6, align 8, !tbaa !8
  %17 = call i32 @Gia_ObjFaninC0(ptr noundef %16)
  %18 = icmp ne i32 %17, 0
  br i1 %18, label %19, label %23

19:                                               ; preds = %15
  %20 = load ptr, ptr %6, align 8, !tbaa !8
  %21 = call i32 @Gia_ObjFaninC1(ptr noundef %20)
  %22 = icmp ne i32 %21, 0
  br i1 %22, label %24, label %23

23:                                               ; preds = %19, %15
  store i32 0, ptr %4, align 4
  store i32 1, ptr %10, align 4
  br label %126

24:                                               ; preds = %19
  %25 = load ptr, ptr %6, align 8, !tbaa !8
  %26 = call ptr @Gia_ObjFanin0(ptr noundef %25)
  store ptr %26, ptr %8, align 8, !tbaa !8
  %27 = load ptr, ptr %6, align 8, !tbaa !8
  %28 = call ptr @Gia_ObjFanin1(ptr noundef %27)
  store ptr %28, ptr %9, align 8, !tbaa !8
  %29 = load ptr, ptr %8, align 8, !tbaa !8
  %30 = call i32 @Gia_ObjIsAnd(ptr noundef %29)
  %31 = icmp ne i32 %30, 0
  br i1 %31, label %32, label %36

32:                                               ; preds = %24
  %33 = load ptr, ptr %9, align 8, !tbaa !8
  %34 = call i32 @Gia_ObjIsAnd(ptr noundef %33)
  %35 = icmp ne i32 %34, 0
  br i1 %35, label %37, label %36

36:                                               ; preds = %32, %24
  store i32 0, ptr %4, align 4
  store i32 1, ptr %10, align 4
  br label %126

37:                                               ; preds = %32
  %38 = load ptr, ptr %5, align 8, !tbaa !3
  %39 = load ptr, ptr %8, align 8, !tbaa !8
  %40 = call ptr @Gia_ObjFanin0(ptr noundef %39)
  %41 = load ptr, ptr %9, align 8, !tbaa !8
  %42 = call ptr @Gia_ObjFanin0(ptr noundef %41)
  %43 = load ptr, ptr %7, align 8, !tbaa !10
  %44 = call i32 @Acec_DetectBoothXorMux(ptr noundef %38, ptr noundef %40, ptr noundef %42, ptr noundef %43)
  %45 = icmp ne i32 %44, 0
  br i1 %45, label %46, label %59

46:                                               ; preds = %37
  %47 = load ptr, ptr %5, align 8, !tbaa !3
  %48 = load ptr, ptr %8, align 8, !tbaa !8
  %49 = call ptr @Gia_ObjFanin1(ptr noundef %48)
  %50 = call i32 @Gia_ObjId(ptr noundef %47, ptr noundef %49)
  %51 = load ptr, ptr %7, align 8, !tbaa !10
  %52 = getelementptr inbounds i32, ptr %51, i64 3
  store i32 %50, ptr %52, align 4, !tbaa !12
  %53 = load ptr, ptr %5, align 8, !tbaa !3
  %54 = load ptr, ptr %9, align 8, !tbaa !8
  %55 = call ptr @Gia_ObjFanin1(ptr noundef %54)
  %56 = call i32 @Gia_ObjId(ptr noundef %53, ptr noundef %55)
  %57 = load ptr, ptr %7, align 8, !tbaa !10
  %58 = getelementptr inbounds i32, ptr %57, i64 4
  store i32 %56, ptr %58, align 4, !tbaa !12
  store i32 1, ptr %4, align 4
  store i32 1, ptr %10, align 4
  br label %126

59:                                               ; preds = %37
  %60 = load ptr, ptr %5, align 8, !tbaa !3
  %61 = load ptr, ptr %8, align 8, !tbaa !8
  %62 = call ptr @Gia_ObjFanin0(ptr noundef %61)
  %63 = load ptr, ptr %9, align 8, !tbaa !8
  %64 = call ptr @Gia_ObjFanin1(ptr noundef %63)
  %65 = load ptr, ptr %7, align 8, !tbaa !10
  %66 = call i32 @Acec_DetectBoothXorMux(ptr noundef %60, ptr noundef %62, ptr noundef %64, ptr noundef %65)
  %67 = icmp ne i32 %66, 0
  br i1 %67, label %68, label %81

68:                                               ; preds = %59
  %69 = load ptr, ptr %5, align 8, !tbaa !3
  %70 = load ptr, ptr %8, align 8, !tbaa !8
  %71 = call ptr @Gia_ObjFanin1(ptr noundef %70)
  %72 = call i32 @Gia_ObjId(ptr noundef %69, ptr noundef %71)
  %73 = load ptr, ptr %7, align 8, !tbaa !10
  %74 = getelementptr inbounds i32, ptr %73, i64 3
  store i32 %72, ptr %74, align 4, !tbaa !12
  %75 = load ptr, ptr %5, align 8, !tbaa !3
  %76 = load ptr, ptr %9, align 8, !tbaa !8
  %77 = call ptr @Gia_ObjFanin0(ptr noundef %76)
  %78 = call i32 @Gia_ObjId(ptr noundef %75, ptr noundef %77)
  %79 = load ptr, ptr %7, align 8, !tbaa !10
  %80 = getelementptr inbounds i32, ptr %79, i64 4
  store i32 %78, ptr %80, align 4, !tbaa !12
  store i32 1, ptr %4, align 4
  store i32 1, ptr %10, align 4
  br label %126

81:                                               ; preds = %59
  %82 = load ptr, ptr %5, align 8, !tbaa !3
  %83 = load ptr, ptr %8, align 8, !tbaa !8
  %84 = call ptr @Gia_ObjFanin1(ptr noundef %83)
  %85 = load ptr, ptr %9, align 8, !tbaa !8
  %86 = call ptr @Gia_ObjFanin0(ptr noundef %85)
  %87 = load ptr, ptr %7, align 8, !tbaa !10
  %88 = call i32 @Acec_DetectBoothXorMux(ptr noundef %82, ptr noundef %84, ptr noundef %86, ptr noundef %87)
  %89 = icmp ne i32 %88, 0
  br i1 %89, label %90, label %103

90:                                               ; preds = %81
  %91 = load ptr, ptr %5, align 8, !tbaa !3
  %92 = load ptr, ptr %8, align 8, !tbaa !8
  %93 = call ptr @Gia_ObjFanin0(ptr noundef %92)
  %94 = call i32 @Gia_ObjId(ptr noundef %91, ptr noundef %93)
  %95 = load ptr, ptr %7, align 8, !tbaa !10
  %96 = getelementptr inbounds i32, ptr %95, i64 3
  store i32 %94, ptr %96, align 4, !tbaa !12
  %97 = load ptr, ptr %5, align 8, !tbaa !3
  %98 = load ptr, ptr %9, align 8, !tbaa !8
  %99 = call ptr @Gia_ObjFanin1(ptr noundef %98)
  %100 = call i32 @Gia_ObjId(ptr noundef %97, ptr noundef %99)
  %101 = load ptr, ptr %7, align 8, !tbaa !10
  %102 = getelementptr inbounds i32, ptr %101, i64 4
  store i32 %100, ptr %102, align 4, !tbaa !12
  store i32 1, ptr %4, align 4
  store i32 1, ptr %10, align 4
  br label %126

103:                                              ; preds = %81
  %104 = load ptr, ptr %5, align 8, !tbaa !3
  %105 = load ptr, ptr %8, align 8, !tbaa !8
  %106 = call ptr @Gia_ObjFanin1(ptr noundef %105)
  %107 = load ptr, ptr %9, align 8, !tbaa !8
  %108 = call ptr @Gia_ObjFanin1(ptr noundef %107)
  %109 = load ptr, ptr %7, align 8, !tbaa !10
  %110 = call i32 @Acec_DetectBoothXorMux(ptr noundef %104, ptr noundef %106, ptr noundef %108, ptr noundef %109)
  %111 = icmp ne i32 %110, 0
  br i1 %111, label %112, label %125

112:                                              ; preds = %103
  %113 = load ptr, ptr %5, align 8, !tbaa !3
  %114 = load ptr, ptr %8, align 8, !tbaa !8
  %115 = call ptr @Gia_ObjFanin0(ptr noundef %114)
  %116 = call i32 @Gia_ObjId(ptr noundef %113, ptr noundef %115)
  %117 = load ptr, ptr %7, align 8, !tbaa !10
  %118 = getelementptr inbounds i32, ptr %117, i64 3
  store i32 %116, ptr %118, align 4, !tbaa !12
  %119 = load ptr, ptr %5, align 8, !tbaa !3
  %120 = load ptr, ptr %9, align 8, !tbaa !8
  %121 = call ptr @Gia_ObjFanin0(ptr noundef %120)
  %122 = call i32 @Gia_ObjId(ptr noundef %119, ptr noundef %121)
  %123 = load ptr, ptr %7, align 8, !tbaa !10
  %124 = getelementptr inbounds i32, ptr %123, i64 4
  store i32 %122, ptr %124, align 4, !tbaa !12
  store i32 1, ptr %4, align 4
  store i32 1, ptr %10, align 4
  br label %126

125:                                              ; preds = %103
  store i32 0, ptr %4, align 4
  store i32 1, ptr %10, align 4
  br label %126

126:                                              ; preds = %125, %112, %90, %68, %46, %36, %23, %14
  call void @llvm.lifetime.end.p0(i64 8, ptr %9) #8
  call void @llvm.lifetime.end.p0(i64 8, ptr %8) #8
  %127 = load i32, ptr %4, align 4
  ret i32 %127
}