; Function Attrs: nounwind uwtable
define range(i32 0, 2) i32 @Acec_DetectBoothXorFanin(ptr noundef readonly captures(none) %0, ptr noundef %1, ptr noundef writeonly captures(none) %2) local_unnamed_addr #0 {
  %.val64 = load i64, ptr %1, align 4
  %4 = and i64 %.val64, 536870911
  %5 = icmp eq i64 %4, 536870911
  %6 = and i64 %.val64, 2305843011898048512
  %7 = icmp ne i64 %6, 2305843009750564864
  %or.cond72 = or i1 %7, %5
  br i1 %or.cond72, label %119, label %8

8:                                                ; preds = %3
  %9 = sub nsw i64 0, %4
  %10 = getelementptr inbounds %struct.Gia_Obj_t_, ptr %1, i64 %9
  %11 = lshr i64 %.val64, 32
  %12 = and i64 %11, 536870911
  %13 = sub nsw i64 0, %12
  %14 = getelementptr inbounds %struct.Gia_Obj_t_, ptr %1, i64 %13
  %.val63 = load i64, ptr %10, align 4
  %15 = and i64 %.val63, 2147483648
  %.not.i67 = icmp ne i64 %15, 0
  %16 = and i64 %.val63, 536870911
  %17 = icmp eq i64 %16, 536870911
  %narrow.i68.not = or i1 %.not.i67, %17
  br i1 %narrow.i68.not, label %119, label %18

18:                                               ; preds = %8
  %.val62 = load i64, ptr %14, align 4
  %19 = and i64 %.val62, 2147483648
  %.not.i69 = icmp ne i64 %19, 0
  %20 = and i64 %.val62, 536870911
  %21 = icmp eq i64 %20, 536870911
  %narrow.i70.not = or i1 %.not.i69, %21
  br i1 %narrow.i70.not, label %119, label %22

22:                                               ; preds = %18
  %23 = sub nsw i64 0, %16
  %24 = getelementptr inbounds %struct.Gia_Obj_t_, ptr %10, i64 %23
  %25 = sub nsw i64 0, %20
  %26 = getelementptr inbounds %struct.Gia_Obj_t_, ptr %14, i64 %25
  %27 = tail call i32 @Acec_DetectBoothXorMux(ptr noundef %0, ptr noundef nonnull %24, ptr noundef nonnull %26, ptr noundef %2)
  %.not51 = icmp eq i32 %27, 0
  %28 = load i64, ptr %10, align 4
  br i1 %.not51, label %43, label %29

29:                                               ; preds = %22
  %30 = lshr i64 %28, 32
  %31 = and i64 %30, 536870911
  %32 = sub nsw i64 0, %31
  %33 = getelementptr inbounds %struct.Gia_Obj_t_, ptr %10, i64 %32
  %34 = getelementptr i8, ptr %0, i64 32
  %.val61 = load ptr, ptr %34, align 8, !tbaa !8
  %35 = ptrtoint ptr %33 to i64
  %36 = ptrtoint ptr %.val61 to i64
  %37 = sub i64 %35, %36
  %38 = sdiv exact i64 %37, 12
  %39 = trunc i64 %38 to i32
  %40 = getelementptr inbounds nuw i8, ptr %2, i64 12
  store i32 %39, ptr %40, align 4, !tbaa !29
  %41 = load i64, ptr %14, align 4
  %42 = lshr i64 %41, 32
  br label %.sink.split

43:                                               ; preds = %22
  %44 = and i64 %28, 536870911
  %45 = sub nsw i64 0, %44
  %46 = getelementptr inbounds %struct.Gia_Obj_t_, ptr %10, i64 %45
  %47 = load i64, ptr %14, align 4
  %48 = lshr i64 %47, 32
  %49 = and i64 %48, 536870911
  %50 = sub nsw i64 0, %49
  %51 = getelementptr inbounds %struct.Gia_Obj_t_, ptr %14, i64 %50
  %52 = tail call i32 @Acec_DetectBoothXorMux(ptr noundef %0, ptr noundef nonnull %46, ptr noundef nonnull %51, ptr noundef %2)
  %.not52 = icmp eq i32 %52, 0
  %53 = load i64, ptr %10, align 4
  %54 = lshr i64 %53, 32
  %55 = and i64 %54, 536870911
  %56 = sub nsw i64 0, %55
  %57 = getelementptr inbounds %struct.Gia_Obj_t_, ptr %10, i64 %56
  br i1 %.not52, label %67, label %58

58:                                               ; preds = %43
  %59 = getelementptr i8, ptr %0, i64 32
  %.val59 = load ptr, ptr %59, align 8, !tbaa !8
  %60 = ptrtoint ptr %57 to i64
  %61 = ptrtoint ptr %.val59 to i64
  %62 = sub i64 %60, %61
  %63 = sdiv exact i64 %62, 12
  %64 = trunc i64 %63 to i32
  %65 = getelementptr inbounds nuw i8, ptr %2, i64 12
  store i32 %64, ptr %65, align 4, !tbaa !29
  %66 = load i64, ptr %14, align 4
  br label %.sink.split

67:                                               ; preds = %43
  %68 = load i64, ptr %14, align 4
  %69 = and i64 %68, 536870911
  %70 = sub nsw i64 0, %69
  %71 = getelementptr inbounds %struct.Gia_Obj_t_, ptr %14, i64 %70
  %72 = tail call i32 @Acec_DetectBoothXorMux(ptr noundef %0, ptr noundef nonnull %57, ptr noundef nonnull %71, ptr noundef %2)
  %.not53 = icmp eq i32 %72, 0
  %73 = load i64, ptr %10, align 4
  br i1 %.not53, label %87, label %74

74:                                               ; preds = %67
  %75 = and i64 %73, 536870911
  %76 = sub nsw i64 0, %75
  %77 = getelementptr inbounds %struct.Gia_Obj_t_, ptr %10, i64 %76
  %78 = getelementptr i8, ptr %0, i64 32
  %.val57 = load ptr, ptr %78, align 8, !tbaa !8
  %79 = ptrtoint ptr %77 to i64
  %80 = ptrtoint ptr %.val57 to i64
  %81 = sub i64 %79, %80
  %82 = sdiv exact i64 %81, 12
  %83 = trunc i64 %82 to i32
  %84 = getelementptr inbounds nuw i8, ptr %2, i64 12
  store i32 %83, ptr %84, align 4, !tbaa !29
  %85 = load i64, ptr %14, align 4
  %86 = lshr i64 %85, 32
  br label %.sink.split

87:                                               ; preds = %67
  %88 = lshr i64 %73, 32
  %89 = and i64 %88, 536870911
  %90 = sub nsw i64 0, %89
  %91 = getelementptr inbounds %struct.Gia_Obj_t_, ptr %10, i64 %90
  %92 = load i64, ptr %14, align 4
  %93 = lshr i64 %92, 32
  %94 = and i64 %93, 536870911
  %95 = sub nsw i64 0, %94
  %96 = getelementptr inbounds %struct.Gia_Obj_t_, ptr %14, i64 %95
  %97 = tail call i32 @Acec_DetectBoothXorMux(ptr noundef %0, ptr noundef nonnull %91, ptr noundef nonnull %96, ptr noundef %2)
  %.not54 = icmp eq i32 %97, 0
  br i1 %.not54, label %119, label %98

98:                                               ; preds = %87
  %99 = load i64, ptr %10, align 4
  %100 = and i64 %99, 536870911
  %101 = sub nsw i64 0, %100
  %102 = getelementptr inbounds %struct.Gia_Obj_t_, ptr %10, i64 %101
  %103 = getelementptr i8, ptr %0, i64 32
  %.val55 = load ptr, ptr %103, align 8, !tbaa !8
  %104 = ptrtoint ptr %102 to i64
  %105 = ptrtoint ptr %.val55 to i64
  %106 = sub i64 %104, %105
  %107 = sdiv exact i64 %106, 12
  %108 = trunc i64 %107 to i32
  %109 = getelementptr inbounds nuw i8, ptr %2, i64 12
  store i32 %108, ptr %109, align 4, !tbaa !29
  %110 = load i64, ptr %14, align 4
  br label %.sink.split

.sink.split:                                      ; preds = %29, %58, %74, %98
  %.sink78 = phi i64 [ %110, %98 ], [ %86, %74 ], [ %66, %58 ], [ %42, %29 ]
  %.sink76 = phi i64 [ %105, %98 ], [ %80, %74 ], [ %61, %58 ], [ %36, %29 ]
  %111 = and i64 %.sink78, 536870911
  %112 = sub nsw i64 0, %111
  %113 = getelementptr inbounds %struct.Gia_Obj_t_, ptr %14, i64 %112
  %114 = ptrtoint ptr %113 to i64
  %115 = sub i64 %114, %.sink76
  %116 = sdiv exact i64 %115, 12
  %117 = trunc i64 %116 to i32
  %118 = getelementptr inbounds nuw i8, ptr %2, i64 16
  store i32 %117, ptr %118, align 4, !tbaa !29
  br label %119

119:                                              ; preds = %.sink.split, %87, %8, %18, %3
  %.0 = phi i32 [ 0, %3 ], [ 0, %18 ], [ 0, %8 ], [ 0, %87 ], [ 1, %.sink.split ]
  ret i32 %.0
}